target datalayout = "e-m:e-p270:32:32-p271:32:32-p272:64:64-i64:64-i128:128-f80:128-n8:16:32:64-S128"
target triple = "x86_64-pc-linux-gnu"

%struct.slice_buffer_s = type { ptr, ptr, i32, i32, i32, i32, ptr }

; Function Attrs: nounwind uwtable
define i32 @ff_slice_buffer_init(ptr noundef %0, i32 noundef %1, i32 noundef %2, i32 noundef %3, ptr noundef %4) #0 {
  %6 = alloca i32, align 4
  %7 = alloca ptr, align 8
  %8 = alloca i32, align 4
  %9 = alloca i32, align 4
  %10 = alloca i32, align 4
  %11 = alloca ptr, align 8
  %12 = alloca i32, align 4
  %13 = alloca i32, align 4
  store ptr %0, ptr %7, align 8, !tbaa !4
  store i32 %1, ptr %8, align 4, !tbaa !9
  store i32 %2, ptr %9, align 4, !tbaa !9
  store i32 %3, ptr %10, align 4, !tbaa !9
  store ptr %4, ptr %11, align 8, !tbaa !11
  call void @llvm.lifetime.start.p0(i64 4, ptr %12) #8
  %14 = load ptr, ptr %11, align 8, !tbaa !11
  %15 = load ptr, ptr %7, align 8, !tbaa !4
  %16 = getelementptr inbounds nuw %struct.slice_buffer_s, ptr %15, i32 0, i32 6
  store ptr %14, ptr %16, align 8, !tbaa !13
  %17 = load i32, ptr %8, align 4, !tbaa !9
  %18 = load ptr, ptr %7, align 8, !tbaa !4
  %19 = getelementptr inbounds nuw %struct.slice_buffer_s, ptr %18, i32 0, i32 3
  store i32 %17, ptr %19, align 4, !tbaa !17
  %20 = load i32, ptr %10, align 4, !tbaa !9
  %21 = load ptr, ptr %7, align 8, !tbaa !4
  %22 = getelementptr inbounds nuw %struct.slice_buffer_s, ptr %21, i32 0, i32 4
  store i32 %20, ptr %22, align 8, !tbaa !18
  %23 = load i32, ptr %9, align 4, !tbaa !9
  %24 = load ptr, ptr %7, align 8, !tbaa !4
  %25 = getelementptr inbounds nuw %struct.slice_buffer_s, ptr %24, i32 0, i32 5
  store i32 %23, ptr %25, align 4, !tbaa !19
  %26 = load i32, ptr %8, align 4, !tbaa !9
  %27 = sext i32 %26 to i64
  %28 = call noalias ptr @av_calloc(i64 noundef %27, i64 noundef 8)
  %29 = load ptr, ptr %7, align 8, !tbaa !4
  %30 = getelementptr inbounds nuw %struct.slice_buffer_s, ptr %29, i32 0, i32 0
  store ptr %28, ptr %30, align 8, !tbaa !20
  %31 = load ptr, ptr %7, align 8, !tbaa !4
  %32 = getelementptr inbounds nuw %struct.slice_buffer_s, ptr %31, i32 0, i32 0
  %33 = load ptr, ptr %32, align 8, !tbaa !20
  %34 = icmp ne ptr %33, null
  br i1 %34, label %36, label %35

35:                                               ; preds = %5
  store i32 -12, ptr %6, align 4
  store i32 1, ptr %13, align 4
  br label %102

36:                                               ; preds = %5
  %37 = load i32, ptr %9, align 4, !tbaa !9
  %38 = sext i32 %37 to i64
  %39 = call ptr @av_malloc_array(i64 noundef %38, i64 noundef 8)
  %40 = load ptr, ptr %7, align 8, !tbaa !4
  %41 = getelementptr inbounds nuw %struct.slice_buffer_s, ptr %40, i32 0, i32 1
  store ptr %39, ptr %41, align 8, !tbaa !21
  %42 = load ptr, ptr %7, align 8, !tbaa !4
  %43 = getelementptr inbounds nuw %struct.slice_buffer_s, ptr %42, i32 0, i32 1
  %44 = load ptr, ptr %43, align 8, !tbaa !21
  %45 = icmp ne ptr %44, null
  br i1 %45, label %49, label %46

46:                                               ; preds = %36
  %47 = load ptr, ptr %7, align 8, !tbaa !4
  %48 = getelementptr inbounds nuw %struct.slice_buffer_s, ptr %47, i32 0, i32 0
  call void @av_freep(ptr noundef %48)
  store i32 -12, ptr %6, align 4
  store i32 1, ptr %13, align 4
  br label %102

49:                                               ; preds = %36
  store i32 0, ptr %12, align 4, !tbaa !9
  br label %50

50:                                               ; preds = %94, %49
  %51 = load i32, ptr %12, align 4, !tbaa !9
  %52 = load i32, ptr %9, align 4, !tbaa !9
  %53 = icmp slt i32 %51, %52
  br i1 %53, label %54, label %97

54:                                               ; preds = %50
  %55 = load i32, ptr %10, align 4, !tbaa !9
  %56 = sext i32 %55 to i64
  %57 = call ptr @av_malloc_array(i64 noundef %56, i64 noundef 2)
  %58 = load ptr, ptr %7, align 8, !tbaa !4
  %59 = getelementptr inbounds nuw %struct.slice_buffer_s, ptr %58, i32 0, i32 1
  %60 = load ptr, ptr %59, align 8, !tbaa !21
  %61 = load i32, ptr %12, align 4, !tbaa !9
  %62 = sext i32 %61 to i64
  %63 = getelementptr inbounds ptr, ptr %60, i64 %62
  store ptr %57, ptr %63, align 8, !tbaa !11
  %64 = load ptr, ptr %7, align 8, !tbaa !4
  %65 = getelementptr inbounds nuw %struct.slice_buffer_s, ptr %64, i32 0, i32 1
  %66 = load ptr, ptr %65, align 8, !tbaa !21
  %67 = load i32, ptr %12, align 4, !tbaa !9
  %68 = sext i32 %67 to i64
  %69 = getelementptr inbounds ptr, ptr %66, i64 %68
  %70 = load ptr, ptr %69, align 8, !tbaa !11
  %71 = icmp ne ptr %70, null
  br i1 %71, label %93, label %72

72:                                               ; preds = %54
  %73 = load i32, ptr %12, align 4, !tbaa !9
  %74 = add nsw i32 %73, -1
  store i32 %74, ptr %12, align 4, !tbaa !9
  br label %75

75:                                               ; preds = %85, %72
  %76 = load i32, ptr %12, align 4, !tbaa !9
  %77 = icmp sge i32 %76, 0
  br i1 %77, label %78, label %88

78:                                               ; preds = %75
  %79 = load ptr, ptr %7, align 8, !tbaa !4
  %80 = getelementptr inbounds nuw %struct.slice_buffer_s, ptr %79, i32 0, i32 1
  %81 = load ptr, ptr %80, align 8, !tbaa !21
  %82 = load i32, ptr %12, align 4, !tbaa !9
  %83 = sext i32 %82 to i64
  %84 = getelementptr inbounds ptr, ptr %81, i64 %83
  call void @av_freep(ptr noundef %84)
  br label %85

85:                                               ; preds = %78
  %86 = load i32, ptr %12, align 4, !tbaa !9
  %87 = add nsw i32 %86, -1
  store i32 %87, ptr %12, align 4, !tbaa !9
  br label %75, !llvm.loop !22

88:                                               ; preds = %75
  %89 = load ptr, ptr %7, align 8, !tbaa !4
  %90 = getelementptr inbounds nuw %struct.slice_buffer_s, ptr %89, i32 0, i32 1
  call void @av_freep(ptr noundef %90)
  %91 = load ptr, ptr %7, align 8, !tbaa !4
  %92 = getelementptr inbounds nuw %struct.slice_buffer_s, ptr %91, i32 0, i32 0
  call void @av_freep(ptr noundef %92)
  store i32 -12, ptr %6, align 4
  store i32 1, ptr %13, align 4
  br label %102

93:                                               ; preds = %54
  br label %94

94:                                               ; preds = %93
  %95 = load i32, ptr %12, align 4, !tbaa !9
  %96 = add nsw i32 %95, 1
  store i32 %96, ptr %12, align 4, !tbaa !9
  br label %50, !llvm.loop !24

97:                                               ; preds = %50
  %98 = load i32, ptr %9, align 4, !tbaa !9
  %99 = sub nsw i32 %98, 1
  %100 = load ptr, ptr %7, align 8, !tbaa !4
  %101 = getelementptr inbounds nuw %struct.slice_buffer_s, ptr %100, i32 0, i32 2
  store i32 %99, ptr %101, align 8, !tbaa !25
  store i32 0, ptr %6, align 4
  store i32 1, ptr %13, align 4
  br label %102

102:                                              ; preds = %97, %88, %46, %35
  call void @llvm.lifetime.end.p0(i64 4, ptr %12) #8
  %103 = load i32, ptr %6, align 4
  ret i32 %103
}