; Function Attrs: nounwind uwtable
define range(i32 -12, 1) i32 @ff_slice_buffer_init(ptr noundef initializes((0, 8), (20, 40)) %0, i32 noundef %1, i32 noundef %2, i32 noundef %3, ptr noundef %4) local_unnamed_addr #0 {
  %6 = getelementptr inbounds nuw i8, ptr %0, i64 32
  store ptr %4, ptr %6, align 8, !tbaa !4
  %7 = getelementptr inbounds nuw i8, ptr %0, i64 20
  store i32 %1, ptr %7, align 4, !tbaa !13
  %8 = getelementptr inbounds nuw i8, ptr %0, i64 24
  store i32 %3, ptr %8, align 8, !tbaa !14
  %9 = getelementptr inbounds nuw i8, ptr %0, i64 28
  store i32 %2, ptr %9, align 4, !tbaa !15
  %10 = sext i32 %1 to i64
  %11 = tail call noalias ptr @av_calloc(i64 noundef %10, i64 noundef 8) #12
  store ptr %11, ptr %0, align 8, !tbaa !16
  %.not = icmp eq ptr %11, null
  br i1 %.not, label %29, label %12

12:                                               ; preds = %5
  %13 = sext i32 %2 to i64
  %14 = tail call ptr @av_malloc_array(i64 noundef %13, i64 noundef 8) #12
  %15 = getelementptr inbounds nuw i8, ptr %0, i64 8
  store ptr %14, ptr %15, align 8, !tbaa !17
  %.not34 = icmp eq ptr %14, null
  br i1 %.not34, label %18, label %.preheader36

.preheader36:                                     ; preds = %12
  %16 = icmp sgt i32 %2, 0
  br i1 %16, label %.lr.ph, label %._crit_edge

.lr.ph:                                           ; preds = %.preheader36
  %17 = sext i32 %3 to i64
  %wide.trip.count = zext nneg i32 %2 to i64
  br label %19

18:                                               ; preds = %12
  tail call void @av_freep(ptr noundef nonnull %0) #12
  br label %29

19:                                               ; preds = %.lr.ph, %26
  %indvars.iv = phi i64 [ 0, %.lr.ph ], [ %indvars.iv.next, %26 ]
  %20 = tail call ptr @av_malloc_array(i64 noundef %17, i64 noundef 2) #12
  %21 = load ptr, ptr %15, align 8, !tbaa !17
  %22 = getelementptr inbounds nuw ptr, ptr %21, i64 %indvars.iv
  store ptr %20, ptr %22, align 8, !tbaa !18
  %.not35 = icmp eq ptr %20, null
  br i1 %.not35, label %.preheader, label %26

.preheader:                                       ; preds = %19
  %.not42 = icmp eq i64 %indvars.iv, 0
  br i1 %.not42, label %._crit_edge41, label %.lr.ph40

.lr.ph40:                                         ; preds = %.preheader, %.lr.ph40
  %indvars.iv46 = phi i64 [ %indvars.iv.next47, %.lr.ph40 ], [ %indvars.iv, %.preheader ]
  %indvars.iv.next47 = add nsw i64 %indvars.iv46, -1
  %23 = load ptr, ptr %15, align 8, !tbaa !17
  %24 = getelementptr inbounds nuw ptr, ptr %23, i64 %indvars.iv.next47
  tail call void @av_freep(ptr noundef %24) #12
  %25 = icmp sgt i64 %indvars.iv46, 1
  br i1 %25, label %.lr.ph40, label %._crit_edge41, !llvm.loop !19

._crit_edge41:                                    ; preds = %.lr.ph40, %.preheader
  tail call void @av_freep(ptr noundef nonnull %15) #12
  tail call void @av_freep(ptr noundef nonnull %0) #12
  br label %29

26:                                               ; preds = %19
  %indvars.iv.next = add nuw nsw i64 %indvars.iv, 1
  %exitcond.not = icmp eq i64 %indvars.iv.next, %wide.trip.count
  br i1 %exitcond.not, label %._crit_edge, label %19, !llvm.loop !21

._crit_edge:                                      ; preds = %26, %.preheader36
  %27 = add nsw i32 %2, -1
  %28 = getelementptr inbounds nuw i8, ptr %0, i64 16
  store i32 %27, ptr %28, align 8, !tbaa !22
  br label %29

29:                                               ; preds = %5, %._crit_edge, %._crit_edge41, %18
  %.032 = phi i32 [ -12, %._crit_edge41 ], [ 0, %._crit_edge ], [ -12, %18 ], [ -12, %5 ]
  ret i32 %.032
}